target datalayout = "e-m:e-p270:32:32-p271:32:32-p272:64:64-i64:64-i128:128-f80:128-n8:16:32:64-S128"
target triple = "x86_64-pc-linux-gnu"

%struct.lua_TValue = type { %union.Value, i32 }
%union.Value = type { ptr }
%union.TString = type { %struct.anon }
%struct.anon = type { ptr, i8, i8, i8, i32, i64 }
%struct.lua_State = type { ptr, i8, i8, i8, ptr, ptr, ptr, ptr, ptr, ptr, ptr, ptr, ptr, i32, i32, i16, i16, i8, i8, i32, i32, ptr, %struct.lua_TValue, %struct.lua_TValue, ptr, ptr, ptr, i64 }
%struct.global_State = type { %struct.stringtable, ptr, ptr, i8, i8, i32, ptr, ptr, ptr, ptr, ptr, ptr, %struct.Mbuffer, i64, i64, i64, i64, i32, i32, ptr, %struct.lua_TValue, ptr, %struct.UpVal, [9 x ptr], [17 x ptr] }
%struct.stringtable = type { ptr, i32, i32 }
%struct.Mbuffer = type { ptr, i64, i64 }
%struct.UpVal = type { ptr, i8, i8, ptr, %union.anon }
%union.anon = type { %struct.lua_TValue }

@.str = private unnamed_addr constant [6 x i8] c"%.14g\00", align 1
@.str.5 = private unnamed_addr constant [23 x i8] c"string length overflow\00", align 1

; Function Attrs: nounwind uwtable
define hidden i32 @luaV_tostring(ptr noundef %0, ptr noundef %1) #0 {
  %3 = alloca i32, align 4
  %4 = alloca ptr, align 8
  %5 = alloca ptr, align 8
  %6 = alloca [32 x i8], align 16
  %7 = alloca double, align 8
  %8 = alloca ptr, align 8
  store ptr %0, ptr %4, align 8, !tbaa !15
  store ptr %1, ptr %5, align 8, !tbaa !4
  %9 = load ptr, ptr %5, align 8, !tbaa !4
  %10 = getelementptr inbounds nuw %struct.lua_TValue, ptr %9, i32 0, i32 1
  %11 = load i32, ptr %10, align 8, !tbaa !9
  %12 = icmp eq i32 %11, 3
  br i1 %12, label %14, label %13

13:                                               ; preds = %2
  store i32 0, ptr %3, align 4
  br label %31

14:                                               ; preds = %2
  call void @llvm.lifetime.start.p0(i64 32, ptr %6) #7
  call void @llvm.lifetime.start.p0(i64 8, ptr %7) #7
  %15 = load ptr, ptr %5, align 8, !tbaa !4
  %16 = getelementptr inbounds nuw %struct.lua_TValue, ptr %15, i32 0, i32 0
  %17 = load double, ptr %16, align 8, !tbaa !12
  store double %17, ptr %7, align 8, !tbaa !13
  %18 = getelementptr inbounds [32 x i8], ptr %6, i64 0, i64 0
  %19 = load double, ptr %7, align 8, !tbaa !13
  %20 = call i32 (ptr, ptr, ...) @sprintf(ptr noundef %18, ptr noundef @.str, double noundef %19) #7
  call void @llvm.lifetime.start.p0(i64 8, ptr %8) #7
  %21 = load ptr, ptr %5, align 8, !tbaa !4
  store ptr %21, ptr %8, align 8, !tbaa !4
  %22 = load ptr, ptr %4, align 8, !tbaa !15
  %23 = getelementptr inbounds [32 x i8], ptr %6, i64 0, i64 0
  %24 = getelementptr inbounds [32 x i8], ptr %6, i64 0, i64 0
  %25 = call i64 @strlen(ptr noundef %24) #8
  %26 = call ptr @luaS_newlstr(ptr noundef %22, ptr noundef %23, i64 noundef %25)
  %27 = load ptr, ptr %8, align 8, !tbaa !4
  %28 = getelementptr inbounds nuw %struct.lua_TValue, ptr %27, i32 0, i32 0
  store ptr %26, ptr %28, align 8, !tbaa !12
  %29 = load ptr, ptr %8, align 8, !tbaa !4
  %30 = getelementptr inbounds nuw %struct.lua_TValue, ptr %29, i32 0, i32 1
  store i32 4, ptr %30, align 8, !tbaa !9
  call void @llvm.lifetime.end.p0(i64 8, ptr %8) #7
  store i32 1, ptr %3, align 4
  call void @llvm.lifetime.end.p0(i64 8, ptr %7) #7
  call void @llvm.lifetime.end.p0(i64 32, ptr %6) #7
  br label %31

31:                                               ; preds = %14, %13
  %32 = load i32, ptr %3, align 4
  ret i32 %32
}

; Function Attrs: nounwind uwtable
define hidden void @luaV_concat(ptr noundef %0, i32 noundef %1, i32 noundef %2) #0 {
  %4 = alloca ptr, align 8
  %5 = alloca i32, align 4
  %6 = alloca i32, align 4
  %7 = alloca ptr, align 8
  %8 = alloca i32, align 4
  %9 = alloca i64, align 8
  %10 = alloca ptr, align 8
  %11 = alloca i32, align 4
  %12 = alloca i64, align 8
  %13 = alloca i64, align 8
  %14 = alloca ptr, align 8
  store ptr %0, ptr %4, align 8, !tbaa !15
  store i32 %1, ptr %5, align 4, !tbaa !17
  store i32 %2, ptr %6, align 4, !tbaa !17
  br label %15

15:                                               ; preds = %206, %3
  call void @llvm.lifetime.start.p0(i64 8, ptr %7) #7
  %16 = load ptr, ptr %4, align 8, !tbaa !15
  %17 = getelementptr inbounds nuw %struct.lua_State, ptr %16, i32 0, i32 5
  %18 = load ptr, ptr %17, align 8, !tbaa !46
  %19 = load i32, ptr %6, align 4, !tbaa !17
  %20 = sext i32 %19 to i64
  %21 = getelementptr inbounds %struct.lua_TValue, ptr %18, i64 %20
  %22 = getelementptr inbounds %struct.lua_TValue, ptr %21, i64 1
  store ptr %22, ptr %7, align 8, !tbaa !4
  call void @llvm.lifetime.start.p0(i64 4, ptr %8) #7
  store i32 2, ptr %8, align 4, !tbaa !17
  %23 = load ptr, ptr %7, align 8, !tbaa !4
  %24 = getelementptr inbounds %struct.lua_TValue, ptr %23, i64 -2
  %25 = getelementptr inbounds nuw %struct.lua_TValue, ptr %24, i32 0, i32 1
  %26 = load i32, ptr %25, align 8, !tbaa !9
  %27 = icmp eq i32 %26, 4
  br i1 %27, label %34, label %28

28:                                               ; preds = %15
  %29 = load ptr, ptr %7, align 8, !tbaa !4
  %30 = getelementptr inbounds %struct.lua_TValue, ptr %29, i64 -2
  %31 = getelementptr inbounds nuw %struct.lua_TValue, ptr %30, i32 0, i32 1
  %32 = load i32, ptr %31, align 8, !tbaa !9
  %33 = icmp eq i32 %32, 3
  br i1 %33, label %34, label %46

34:                                               ; preds = %28, %15
  %35 = load ptr, ptr %7, align 8, !tbaa !4
  %36 = getelementptr inbounds %struct.lua_TValue, ptr %35, i64 -1
  %37 = getelementptr inbounds nuw %struct.lua_TValue, ptr %36, i32 0, i32 1
  %38 = load i32, ptr %37, align 8, !tbaa !9
  %39 = icmp eq i32 %38, 4
  br i1 %39, label %63, label %40

40:                                               ; preds = %34
  %41 = load ptr, ptr %4, align 8, !tbaa !15
  %42 = load ptr, ptr %7, align 8, !tbaa !4
  %43 = getelementptr inbounds %struct.lua_TValue, ptr %42, i64 -1
  %44 = call i32 @luaV_tostring(ptr noundef %41, ptr noundef %43)
  %45 = icmp ne i32 %44, 0
  br i1 %45, label %63, label %46

46:                                               ; preds = %40, %28
  %47 = load ptr, ptr %4, align 8, !tbaa !15
  %48 = load ptr, ptr %7, align 8, !tbaa !4
  %49 = getelementptr inbounds %struct.lua_TValue, ptr %48, i64 -2
  %50 = load ptr, ptr %7, align 8, !tbaa !4
  %51 = getelementptr inbounds %struct.lua_TValue, ptr %50, i64 -1
  %52 = load ptr, ptr %7, align 8, !tbaa !4
  %53 = getelementptr inbounds %struct.lua_TValue, ptr %52, i64 -2
  %54 = call i32 @call_binTM(ptr noundef %47, ptr noundef %49, ptr noundef %51, ptr noundef %53, i32 noundef 15)
  %55 = icmp ne i32 %54, 0
  br i1 %55, label %62, label %56

56:                                               ; preds = %46
  %57 = load ptr, ptr %4, align 8, !tbaa !15
  %58 = load ptr, ptr %7, align 8, !tbaa !4
  %59 = getelementptr inbounds %struct.lua_TValue, ptr %58, i64 -2
  %60 = load ptr, ptr %7, align 8, !tbaa !4
  %61 = getelementptr inbounds %struct.lua_TValue, ptr %60, i64 -1
  call void @luaG_concaterror(ptr noundef %57, ptr noundef %59, ptr noundef %61)
  br label %62

62:                                               ; preds = %56, %46
  br label %197

63:                                               ; preds = %40, %34
  %64 = load ptr, ptr %7, align 8, !tbaa !4
  %65 = getelementptr inbounds %struct.lua_TValue, ptr %64, i64 -1
  %66 = getelementptr inbounds nuw %struct.lua_TValue, ptr %65, i32 0, i32 0
  %67 = load ptr, ptr %66, align 8, !tbaa !12
  %68 = getelementptr inbounds nuw %struct.anon, ptr %67, i32 0, i32 5
  %69 = load i64, ptr %68, align 8, !tbaa !12
  %70 = icmp eq i64 %69, 0
  br i1 %70, label %71, label %83

71:                                               ; preds = %63
  %72 = load ptr, ptr %7, align 8, !tbaa !4
  %73 = getelementptr inbounds %struct.lua_TValue, ptr %72, i64 -2
  %74 = getelementptr inbounds nuw %struct.lua_TValue, ptr %73, i32 0, i32 1
  %75 = load i32, ptr %74, align 8, !tbaa !9
  %76 = icmp eq i32 %75, 4
  br i1 %76, label %82, label %77

77:                                               ; preds = %71
  %78 = load ptr, ptr %4, align 8, !tbaa !15
  %79 = load ptr, ptr %7, align 8, !tbaa !4
  %80 = getelementptr inbounds %struct.lua_TValue, ptr %79, i64 -2
  %81 = call i32 @luaV_tostring(ptr noundef %78, ptr noundef %80)
  br label %82

82:                                               ; preds = %77, %71
  br label %196

83:                                               ; preds = %63
  call void @llvm.lifetime.start.p0(i64 8, ptr %9) #7
  %84 = load ptr, ptr %7, align 8, !tbaa !4
  %85 = getelementptr inbounds %struct.lua_TValue, ptr %84, i64 -1
  %86 = getelementptr inbounds nuw %struct.lua_TValue, ptr %85, i32 0, i32 0
  %87 = load ptr, ptr %86, align 8, !tbaa !12
  %88 = getelementptr inbounds nuw %struct.anon, ptr %87, i32 0, i32 5
  %89 = load i64, ptr %88, align 8, !tbaa !12
  store i64 %89, ptr %9, align 8, !tbaa !39
  call void @llvm.lifetime.start.p0(i64 8, ptr %10) #7
  call void @llvm.lifetime.start.p0(i64 4, ptr %11) #7
  store i32 1, ptr %8, align 4, !tbaa !17
  br label %90

90:                                               ; preds = %139, %83
  %91 = load i32, ptr %8, align 4, !tbaa !17
  %92 = load i32, ptr %5, align 4, !tbaa !17
  %93 = icmp slt i32 %91, %92
  br i1 %93, label %94, label %116

94:                                               ; preds = %90
  %95 = load ptr, ptr %7, align 8, !tbaa !4
  %96 = load i32, ptr %8, align 4, !tbaa !17
  %97 = sext i32 %96 to i64
  %98 = sub i64 0, %97
  %99 = getelementptr inbounds %struct.lua_TValue, ptr %95, i64 %98
  %100 = getelementptr inbounds %struct.lua_TValue, ptr %99, i64 -1
  %101 = getelementptr inbounds nuw %struct.lua_TValue, ptr %100, i32 0, i32 1
  %102 = load i32, ptr %101, align 8, !tbaa !9
  %103 = icmp eq i32 %102, 4
  br i1 %103, label %114, label %104

104:                                              ; preds = %94
  %105 = load ptr, ptr %4, align 8, !tbaa !15
  %106 = load ptr, ptr %7, align 8, !tbaa !4
  %107 = load i32, ptr %8, align 4, !tbaa !17
  %108 = sext i32 %107 to i64
  %109 = sub i64 0, %108
  %110 = getelementptr inbounds %struct.lua_TValue, ptr %106, i64 %109
  %111 = getelementptr inbounds %struct.lua_TValue, ptr %110, i64 -1
  %112 = call i32 @luaV_tostring(ptr noundef %105, ptr noundef %111)
  %113 = icmp ne i32 %112, 0
  br label %114

114:                                              ; preds = %104, %94
  %115 = phi i1 [ true, %94 ], [ %113, %104 ]
  br label %116

116:                                              ; preds = %114, %90
  %117 = phi i1 [ false, %90 ], [ %115, %114 ]
  br i1 %117, label %118, label %142

118:                                              ; preds = %116
  call void @llvm.lifetime.start.p0(i64 8, ptr %12) #7
  %119 = load ptr, ptr %7, align 8, !tbaa !4
  %120 = load i32, ptr %8, align 4, !tbaa !17
  %121 = sext i32 %120 to i64
  %122 = sub i64 0, %121
  %123 = getelementptr inbounds %struct.lua_TValue, ptr %119, i64 %122
  %124 = getelementptr inbounds %struct.lua_TValue, ptr %123, i64 -1
  %125 = getelementptr inbounds nuw %struct.lua_TValue, ptr %124, i32 0, i32 0
  %126 = load ptr, ptr %125, align 8, !tbaa !12
  %127 = getelementptr inbounds nuw %struct.anon, ptr %126, i32 0, i32 5
  %128 = load i64, ptr %127, align 8, !tbaa !12
  store i64 %128, ptr %12, align 8, !tbaa !39
  %129 = load i64, ptr %12, align 8, !tbaa !39
  %130 = load i64, ptr %9, align 8, !tbaa !39
  %131 = sub i64 -3, %130
  %132 = icmp uge i64 %129, %131
  br i1 %132, label %133, label %135

133:                                              ; preds = %118
  %134 = load ptr, ptr %4, align 8, !tbaa !15
  call void (ptr, ptr, ...) @luaG_runerror(ptr noundef %134, ptr noundef @.str.5)
  br label %135

135:                                              ; preds = %133, %118
  %136 = load i64, ptr %12, align 8, !tbaa !39
  %137 = load i64, ptr %9, align 8, !tbaa !39
  %138 = add i64 %137, %136
  store i64 %138, ptr %9, align 8, !tbaa !39
  call void @llvm.lifetime.end.p0(i64 8, ptr %12) #7
  br label %139

139:                                              ; preds = %135
  %140 = load i32, ptr %8, align 4, !tbaa !17
  %141 = add nsw i32 %140, 1
  store i32 %141, ptr %8, align 4, !tbaa !17
  br label %90, !llvm.loop !47

142:                                              ; preds = %116
  %143 = load ptr, ptr %4, align 8, !tbaa !15
  %144 = load ptr, ptr %4, align 8, !tbaa !15
  %145 = getelementptr inbounds nuw %struct.lua_State, ptr %144, i32 0, i32 6
  %146 = load ptr, ptr %145, align 8, !tbaa !25
  %147 = getelementptr inbounds nuw %struct.global_State, ptr %146, i32 0, i32 12
  %148 = load i64, ptr %9, align 8, !tbaa !39
  %149 = call ptr @luaZ_openspace(ptr noundef %143, ptr noundef %147, i64 noundef %148)
  store ptr %149, ptr %10, align 8, !tbaa !44
  store i64 0, ptr %9, align 8, !tbaa !39
  %150 = load i32, ptr %8, align 4, !tbaa !17
  store i32 %150, ptr %11, align 4, !tbaa !17
  br label %151

151:                                              ; preds = %179, %142
  %152 = load i32, ptr %11, align 4, !tbaa !17
  %153 = icmp sgt i32 %152, 0
  br i1 %153, label %154, label %182

154:                                              ; preds = %151
  call void @llvm.lifetime.start.p0(i64 8, ptr %13) #7
  %155 = load ptr, ptr %7, align 8, !tbaa !4
  %156 = load i32, ptr %11, align 4, !tbaa !17
  %157 = sext i32 %156 to i64
  %158 = sub i64 0, %157
  %159 = getelementptr inbounds %struct.lua_TValue, ptr %155, i64 %158
  %160 = getelementptr inbounds nuw %struct.lua_TValue, ptr %159, i32 0, i32 0
  %161 = load ptr, ptr %160, align 8, !tbaa !12
  %162 = getelementptr inbounds nuw %struct.anon, ptr %161, i32 0, i32 5
  %163 = load i64, ptr %162, align 8, !tbaa !12
  store i64 %163, ptr %13, align 8, !tbaa !39
  %164 = load ptr, ptr %10, align 8, !tbaa !44
  %165 = load i64, ptr %9, align 8, !tbaa !39
  %166 = getelementptr inbounds nuw i8, ptr %164, i64 %165
  %167 = load ptr, ptr %7, align 8, !tbaa !4
  %168 = load i32, ptr %11, align 4, !tbaa !17
  %169 = sext i32 %168 to i64
  %170 = sub i64 0, %169
  %171 = getelementptr inbounds %struct.lua_TValue, ptr %167, i64 %170
  %172 = getelementptr inbounds nuw %struct.lua_TValue, ptr %171, i32 0, i32 0
  %173 = load ptr, ptr %172, align 8, !tbaa !12
  %174 = getelementptr inbounds %union.TString, ptr %173, i64 1
  %175 = load i64, ptr %13, align 8, !tbaa !39
  call void @llvm.memcpy.p0.p0.i64(ptr align 1 %166, ptr align 1 %174, i64 %175, i1 false)
  %176 = load i64, ptr %13, align 8, !tbaa !39
  %177 = load i64, ptr %9, align 8, !tbaa !39
  %178 = add i64 %177, %176
  store i64 %178, ptr %9, align 8, !tbaa !39
  call void @llvm.lifetime.end.p0(i64 8, ptr %13) #7
  br label %179

179:                                              ; preds = %154
  %180 = load i32, ptr %11, align 4, !tbaa !17
  %181 = add nsw i32 %180, -1
  store i32 %181, ptr %11, align 4, !tbaa !17
  br label %151, !llvm.loop !48

182:                                              ; preds = %151
  call void @llvm.lifetime.start.p0(i64 8, ptr %14) #7
  %183 = load ptr, ptr %7, align 8, !tbaa !4
  %184 = load i32, ptr %8, align 4, !tbaa !17
  %185 = sext i32 %184 to i64
  %186 = sub i64 0, %185
  %187 = getelementptr inbounds %struct.lua_TValue, ptr %183, i64 %186
  store ptr %187, ptr %14, align 8, !tbaa !4
  %188 = load ptr, ptr %4, align 8, !tbaa !15
  %189 = load ptr, ptr %10, align 8, !tbaa !44
  %190 = load i64, ptr %9, align 8, !tbaa !39
  %191 = call ptr @luaS_newlstr(ptr noundef %188, ptr noundef %189, i64 noundef %190)
  %192 = load ptr, ptr %14, align 8, !tbaa !4
  %193 = getelementptr inbounds nuw %struct.lua_TValue, ptr %192, i32 0, i32 0
  store ptr %191, ptr %193, align 8, !tbaa !12
  %194 = load ptr, ptr %14, align 8, !tbaa !4
  %195 = getelementptr inbounds nuw %struct.lua_TValue, ptr %194, i32 0, i32 1
  store i32 4, ptr %195, align 8, !tbaa !9
  call void @llvm.lifetime.end.p0(i64 8, ptr %14) #7
  call void @llvm.lifetime.end.p0(i64 4, ptr %11) #7
  call void @llvm.lifetime.end.p0(i64 8, ptr %10) #7
  call void @llvm.lifetime.end.p0(i64 8, ptr %9) #7
  br label %196

196:                                              ; preds = %182, %82
  br label %197

197:                                              ; preds = %196, %62
  %198 = load i32, ptr %8, align 4, !tbaa !17
  %199 = sub nsw i32 %198, 1
  %200 = load i32, ptr %5, align 4, !tbaa !17
  %201 = sub nsw i32 %200, %199
  store i32 %201, ptr %5, align 4, !tbaa !17
  %202 = load i32, ptr %8, align 4, !tbaa !17
  %203 = sub nsw i32 %202, 1
  %204 = load i32, ptr %6, align 4, !tbaa !17
  %205 = sub nsw i32 %204, %203
  store i32 %205, ptr %6, align 4, !tbaa !17
  call void @llvm.lifetime.end.p0(i64 4, ptr %8) #7
  call void @llvm.lifetime.end.p0(i64 8, ptr %7) #7
  br label %206

206:                                              ; preds = %197
  %207 = load i32, ptr %5, align 4, !tbaa !17
  %208 = icmp sgt i32 %207, 1
  br i1 %208, label %15, label %209, !llvm.loop !49

209:                                              ; preds = %206
  ret void
}