; Function Attrs: nounwind uwtable
define hidden void @luaV_concat(ptr noundef %0, i32 noundef %1, i32 noundef %2) local_unnamed_addr #0 {
  %4 = alloca [32 x i8], align 16
  %5 = alloca [32 x i8], align 16
  %6 = alloca [32 x i8], align 16
  %7 = getelementptr inbounds nuw i8, ptr %0, i64 24
  %8 = getelementptr inbounds nuw i8, ptr %0, i64 32
  br label %9

9:                                                ; preds = %luaV_tostring.exit74, %3
  %.062 = phi i32 [ %2, %3 ], [ %79, %luaV_tostring.exit74 ]
  %.0 = phi i32 [ %1, %3 ], [ %78, %luaV_tostring.exit74 ]
  %10 = load ptr, ptr %7, align 8, !tbaa !37
  %11 = sext i32 %.062 to i64
  %12 = getelementptr inbounds %struct.lua_TValue, ptr %10, i64 %11
  %13 = getelementptr inbounds nuw i8, ptr %12, i64 16
  %14 = getelementptr inbounds i8, ptr %12, i64 -16
  %15 = getelementptr inbounds i8, ptr %12, i64 -8
  %16 = load i32, ptr %15, align 8, !tbaa !4
  %.off = add i32 %16, -3
  %switch = icmp ult i32 %.off, 2
  br i1 %switch, label %17, label %luaV_tostring.exit.thread

17:                                               ; preds = %9
  %18 = getelementptr inbounds nuw i8, ptr %12, i64 8
  %19 = load i32, ptr %18, align 8, !tbaa !4
  switch i32 %19, label %luaV_tostring.exit.thread [
    i32 4, label %26
    i32 3, label %luaV_tostring.exit
  ]

luaV_tostring.exit:                               ; preds = %17
  call void @llvm.lifetime.start.p0(i64 32, ptr nonnull %6) #9
  %20 = load double, ptr %12, align 8, !tbaa !9
  %21 = call i32 (ptr, ptr, ...) @sprintf(ptr noundef nonnull dereferenceable(1) %6, ptr noundef nonnull dereferenceable(1) @.str, double noundef %20) #9
  %22 = call i64 @strlen(ptr noundef nonnull dereferenceable(1) %6) #10
  %23 = call ptr @luaS_newlstr(ptr noundef nonnull %0, ptr noundef nonnull %6, i64 noundef %22) #9
  store ptr %23, ptr %12, align 8, !tbaa !9
  store i32 4, ptr %18, align 8, !tbaa !4
  call void @llvm.lifetime.end.p0(i64 32, ptr nonnull %6) #9
  br label %26

luaV_tostring.exit.thread:                        ; preds = %17, %9
  %24 = call fastcc i32 @call_binTM(ptr noundef nonnull %0, ptr noundef nonnull %14, ptr noundef nonnull %12, ptr noundef nonnull %14, i32 noundef 15)
  %.not70 = icmp eq i32 %24, 0
  br i1 %.not70, label %25, label %luaV_tostring.exit74

25:                                               ; preds = %luaV_tostring.exit.thread
  call void @luaG_concaterror(ptr noundef nonnull %0, ptr noundef nonnull %14, ptr noundef nonnull %12) #9
  br label %luaV_tostring.exit74

26:                                               ; preds = %17, %luaV_tostring.exit
  %27 = load ptr, ptr %12, align 8, !tbaa !9
  %28 = getelementptr inbounds nuw i8, ptr %27, i64 16
  %29 = load i64, ptr %28, align 8, !tbaa !9
  %30 = icmp eq i64 %29, 0
  br i1 %30, label %33, label %.preheader

.preheader:                                       ; preds = %26
  %31 = icmp sgt i32 %.0, 1
  br i1 %31, label %.lr.ph.preheader, label %.critedge

.lr.ph.preheader:                                 ; preds = %.preheader
  %32 = zext nneg i32 %.0 to i64
  br label %.lr.ph

33:                                               ; preds = %26
  %34 = load i32, ptr %15, align 8, !tbaa !4
  %cond = icmp eq i32 %34, 3
  br i1 %cond, label %35, label %luaV_tostring.exit74

35:                                               ; preds = %33
  call void @llvm.lifetime.start.p0(i64 32, ptr nonnull %5) #9
  %36 = load double, ptr %14, align 8, !tbaa !9
  %37 = call i32 (ptr, ptr, ...) @sprintf(ptr noundef nonnull dereferenceable(1) %5, ptr noundef nonnull dereferenceable(1) @.str, double noundef %36) #9
  %38 = call i64 @strlen(ptr noundef nonnull dereferenceable(1) %5) #10
  %39 = call ptr @luaS_newlstr(ptr noundef nonnull %0, ptr noundef nonnull %5, i64 noundef %38) #9
  store ptr %39, ptr %14, align 8, !tbaa !9
  store i32 4, ptr %15, align 8, !tbaa !4
  call void @llvm.lifetime.end.p0(i64 32, ptr nonnull %5) #9
  br label %luaV_tostring.exit74

.lr.ph:                                           ; preds = %.lr.ph.preheader, %54
  %indvars.iv = phi i64 [ 1, %.lr.ph.preheader ], [ %indvars.iv.next, %54 ]
  %.06581 = phi i64 [ %29, %.lr.ph.preheader ], [ %55, %54 ]
  %40 = sub nsw i64 0, %indvars.iv
  %41 = getelementptr inbounds %struct.lua_TValue, ptr %13, i64 %40
  %42 = getelementptr inbounds i8, ptr %41, i64 -16
  %43 = getelementptr inbounds i8, ptr %41, i64 -8
  %44 = load i32, ptr %43, align 8, !tbaa !4
  switch i32 %44, label %.critedge.loopexit.split.loop.exit [
    i32 4, label %.critedge2
    i32 3, label %luaV_tostring.exit76
  ]

luaV_tostring.exit76:                             ; preds = %.lr.ph
  call void @llvm.lifetime.start.p0(i64 32, ptr nonnull %4) #9
  %45 = load double, ptr %42, align 8, !tbaa !9
  %46 = call i32 (ptr, ptr, ...) @sprintf(ptr noundef nonnull dereferenceable(1) %4, ptr noundef nonnull dereferenceable(1) @.str, double noundef %45) #9
  %47 = call i64 @strlen(ptr noundef nonnull dereferenceable(1) %4) #10
  %48 = call ptr @luaS_newlstr(ptr noundef %0, ptr noundef nonnull %4, i64 noundef %47) #9
  store ptr %48, ptr %42, align 8, !tbaa !9
  store i32 4, ptr %43, align 8, !tbaa !4
  call void @llvm.lifetime.end.p0(i64 32, ptr nonnull %4) #9
  br label %.critedge2

.critedge2:                                       ; preds = %.lr.ph, %luaV_tostring.exit76
  %49 = load ptr, ptr %42, align 8, !tbaa !9
  %50 = getelementptr inbounds nuw i8, ptr %49, i64 16
  %51 = load i64, ptr %50, align 8, !tbaa !9
  %52 = sub i64 -3, %.06581
  %.not72 = icmp ult i64 %51, %52
  br i1 %.not72, label %54, label %53

53:                                               ; preds = %.critedge2
  call void (ptr, ptr, ...) @luaG_runerror(ptr noundef %0, ptr noundef nonnull @.str.5) #9
  br label %54

54:                                               ; preds = %53, %.critedge2
  %55 = add i64 %51, %.06581
  %indvars.iv.next = add nuw nsw i64 %indvars.iv, 1
  %exitcond.not = icmp eq i64 %indvars.iv.next, %32
  br i1 %exitcond.not, label %.critedge, label %.lr.ph, !llvm.loop !38

.critedge.loopexit.split.loop.exit:               ; preds = %.lr.ph
  %56 = trunc nuw nsw i64 %indvars.iv to i32
  br label %.critedge

.critedge:                                        ; preds = %54, %.critedge.loopexit.split.loop.exit, %.preheader
  %.065.lcssa = phi i64 [ %29, %.preheader ], [ %.06581, %.critedge.loopexit.split.loop.exit ], [ %55, %54 ]
  %.1.lcssa = phi i32 [ 1, %.preheader ], [ %56, %.critedge.loopexit.split.loop.exit ], [ %.0, %54 ]
  %57 = load ptr, ptr %8, align 8, !tbaa !22
  %58 = getelementptr inbounds nuw i8, ptr %57, i64 88
  %59 = call ptr @luaZ_openspace(ptr noundef %0, ptr noundef nonnull %58, i64 noundef %.065.lcssa) #9
  %60 = zext i32 %.1.lcssa to i64
  br label %61

61:                                               ; preds = %.critedge, %61
  %indvars.iv90 = phi i64 [ %60, %.critedge ], [ %indvars.iv.next91, %61 ]
  %.16687 = phi i64 [ 0, %.critedge ], [ %69, %61 ]
  %62 = sub nsw i64 0, %indvars.iv90
  %63 = getelementptr inbounds %struct.lua_TValue, ptr %13, i64 %62
  %64 = load ptr, ptr %63, align 8, !tbaa !9
  %65 = getelementptr inbounds nuw i8, ptr %64, i64 16
  %66 = load i64, ptr %65, align 8, !tbaa !9
  %67 = getelementptr inbounds nuw i8, ptr %59, i64 %.16687
  %68 = getelementptr inbounds nuw i8, ptr %64, i64 24
  call void @llvm.memcpy.p0.p0.i64(ptr align 1 %67, ptr nonnull align 1 %68, i64 %66, i1 false)
  %69 = add i64 %66, %.16687
  %indvars.iv.next91 = add nsw i64 %indvars.iv90, -1
  %70 = trunc nuw i64 %indvars.iv90 to i32
  %71 = icmp sgt i32 %70, 1
  br i1 %71, label %61, label %72, !llvm.loop !39

72:                                               ; preds = %61
  %73 = sub nsw i64 0, %60
  %74 = getelementptr inbounds %struct.lua_TValue, ptr %13, i64 %73
  %75 = call ptr @luaS_newlstr(ptr noundef %0, ptr noundef %59, i64 noundef %69) #9
  store ptr %75, ptr %74, align 8, !tbaa !9
  %76 = getelementptr inbounds nuw i8, ptr %74, i64 8
  store i32 4, ptr %76, align 8, !tbaa !4
  %77 = add nsw i32 %.1.lcssa, -1
  br label %luaV_tostring.exit74

luaV_tostring.exit74:                             ; preds = %33, %35, %72, %luaV_tostring.exit.thread, %25
  %.063 = phi i32 [ %77, %72 ], [ 1, %luaV_tostring.exit.thread ], [ 1, %25 ], [ 1, %35 ], [ 1, %33 ]
  %78 = sub nsw i32 %.0, %.063
  %79 = sub nsw i32 %.062, %.063
  %80 = icmp sgt i32 %78, 1
  br i1 %80, label %9, label %81, !llvm.loop !40

81:                                               ; preds = %luaV_tostring.exit74
  ret void
}